(lp0
VIn 2002 the Library of Congress had William B. Jones, Jr. speak on this 1941-1971 comic book series in its collection
p1
aVA controversial 1979 war film was based on a 1902 work by this author
p2
aVIn the '20s the alleged spirit powers of Margery caused a rift between these 2 men, a magician & a writer
p3
aV2 of the 3 men who went from being either a U.S. senator or congressman directly to the presidency
p4
aVIn November 2000, Pope John Paul II proclaimed this 16th century Englishman as the patron saint of politicians
p5
aVA Spanish dictionary defines it as "circulo maximo que equidista de los polos de la tierra"
p6
aVNorma McCorvey recently sought a reversal to her landmark 1973 case in which she had this name
p7
aVBefore Victoria & Elizabeth II, this was the last British monarch to reign during 2 different centuries
p8
aVFord Madox Ford, in the \u201820s, hadn\u2019t \u201cread more than six words\u201d by this man before vowing to \u201cpublish everything he sent me\u201d
p9
aVMarilyn plots her husband's murder at a honeymoon site in this, her only film with a 1-word title
p10
aVSeen in sculpture, Eustache de St. Pierre & 5 other wealthy men made themselves hostages to free this city
p11
aVShe survived the President by 39 years & was married to an archaeology professor at the time of her own death in 1947
p12
aVLeo Tolstoy's story about Hadji Murat, "who slew the Russian swine", opens in this present-day Russian republic
p13
aVThis British ship was named for a Roman province established in the area of Portugal in 27 B.C.
p14
aVAfter WWI he wrote, "To develop a horse-surgery\u2026 would necessitate a knowledge of horse language"
p15
aV1 of the 2 novels, both Southern, that won the Pulitzer for fiction & became Best Picture Oscar winners
p16
aVA San Francisco resident since the 1950s, in 1998 he became the city's first Poet Laureate
p17
aVOnce known as "the handsomest man in America", he performed his last play, "The Apostate", on March 18, 1865
p18
aVPassed in October 2001, its full name includes "providing appropriate tools required..."
p19
aVAround 1900 Monroe Rosenfeld remarked that the music heard along NYC's 28th Street sounded like this
p20
aVCalled the 2 most innovative 19th century American poets, one didn't read the other after being "told that he was disgraceful"
p21
aVThis Monsanto product was developed as a covering to turn asphalt lots in urban areas into playgrounds
p22
aVOn Monday, December 13, 3 people designated these will meet in Cheyenne, Wyoming to help decide the world's future
p23
aVThe last thing visitors see in the exhibit area of the Salem Witch Museum is a huge photo of this politician
p24
aV"Somnium", an early work of science fiction, was written by this German & published posthumously in 1634
p25
aVLegend says this musical was inspired by Lunt & Fontanne's backstage bickering during a Shakespeare play
p26
aVThe 2nd-smallest independent country in area in the Western Hemisphere; in the '80s it was invaded by the 2nd largest
p27
aVLast name of the Chicago cab fleet operator who started the "Drive-Ur-Self" rental system
p28
aVAfter his public comments were criticized by FDR, he resigned his Air Corps Reserve commission in April 1941
p29
aVThey first teamed up in 1974; one a quiet Latin teacher & the other a former clown college student
p30
aVIn 1876 this man became the first person not to get a busy signal on the other end of a phone line
p31
aVWith a common nickname that refers to its size, this is the largest island in the United States
p32
aVAs described in the Bible, the total volume of this was 450,000 cubic cubits
p33
aVOn April 11, 1912, from a pier in Queenstown, Ireland, Francis Brown took one of the last known photos of this
p34
aVThis sport that's also known as whiff-whaff & flim-flam has been an Olympic sport since 1988
p35
aVThe brother of this leader is believed to be the first known European to have died in the Americas
p36
aVAfter several decades off it, works by this man seen here returned to the New York Times Bestseller List in 2003
p37
aVWith only about 425,000 people, it's South America's least populous independent mainland country
p38
aVIn 1893, as it was disappearing, F.J. Turner wrote a famous essay on "The Significance of" it "in American History"
p39
aV"The Babysitter Murders" was the working title for this 1978 thriller
p40
aVIt began in 1886 as an extension of an upper crust family's list of whose house they'd visit & who they'd receive
p41
aVThis king was the great-grandfather of France's King Louis XV
p42
aVSouvenirs sold at this attraction include 1962 World's Fair glassware & mugs boasting "I made it to the top"
p43
aVIn early drafts, the heroine of this novel was named Pansy & her family home was called Fontenoy Hall
p44
aVIts solo female winner is awarded the Venus Rosewater Dish
p45
aVThis Fortune 100 company got its name from what it bought from sailors & sold to natural history collectors
p46
aVThe "Playboy Riots" took place in this world capital in 1907 following a theatrical premiere
p47
aVNever directly seen in the Northern Hemisphere, it's featured on the flags of 5 of the world's countries
p48
aVW.E. Henley, the amputee who wrote the brave poem "Invictus", inspired this character in an 1883 book
p49
aV2-word alternate name for 0 degrees longitude
p50
aVPoet & critic Ludwig Rellstab compared this piano work to a nighttime boat ride on Lake Lucerne
p51
aVWhile working as one, Charlotte Bronte complained that one of these "has no existence, is not considered as a living... being"
p52
aVIn June 2000 Bill Clinton described it as "the most wondrous map ever produced"
p53
aVThe image seen here is part of Faulkner's original text of this 1930 novel
p54
aVIn 1952 William Rehnquist graduated first in his class at Stanford Law & she graduated third
p55
aVAt the dedication of a fountain at Radcliffe College in 1960, she began her speech with the single word "Water"
p56
aVThis state & its capital were named for 2 dukedoms held by the same British man
p57
aVAptly, his middle name contained the word "rich"
p58
aVTeddy Roosevelt used this boxing phrase to announce his 1912 candidacy & said, "The fight is on & I'm stripped to the buff"
p59
aVOf the 5 times Congress has declared war, the 3 during the 19th century were against these 3 nations
p60
aVOf the Social Security Administration's top 10 boys' names in 2000, the 2, ending in the same letter, on a list of the 12 Apostles
p61
aVMost of this firm's 70,000 seasonal white-collar employees work only 4 months a year
p62
aVIn 1790 the HMS Pandora sailed thousands of miles specifically to bring back this man but failed
p63
aVThis adjective for scholars & "Jeopardy!" champs is from the Latin ex, "out or away" & rudis, "rudeness"
p64
aVOf the USA's 10 most populous cities, 1 of the 2 that dropped in population from 1990 to 2000
p65
aVIn German, this classic story is called "Die Kleine Seejungfrau"
p66
aVHis 1840s romance with an older housemaid in Grimstad may have inspired his later themes of guilt & social hypocrisy
p67
aVHe's been both the youngest & the oldest U.S. Secretary of Defense in history
p68
aVAll 6 examples of his signature known to exist date from between 1612 & 1616
p69
aV2 of the 5 states whose mottoes aren't in English or Latin
p70
aVLast names of the 2 men, both engineers, who met & formed a partnership at England's Midland Hotel in May 1904
p71
aVThe only Oscar winner also to win a Nobel Prize, this European won a 1938 Oscar for adapting his own play
p72
aVIn 1943 he sent the famous message "Eleven alive native knows posit and reefs Nauru Island"
p73
aVMore than 600 people, 200 horses, 40 ships, Edward the Confessor & Halley's Comet are depicted on it
p74
aVA high-bounce ball inspired businessman Lamar Hunt to give an annual event this name
p75
aVLast names of the 2 famous families in which 3 generations have won Oscars
p76
aVAt the center of Hell, Satan is devouring Brutus, Cassius & this biblical figure
p77
aVAt Harvard, this writer proposed that we work 1 day & leave 6 free for the "sublime revelations of nature"
p78
aV13th century invading Asian people who brought the idea of eating raw, chopped meat into the Germany area
p79
aVIn Spanish this agency is known as "La Migra"
p80
aVBoth Detroit, her home now, and Montgomery, Alabama, her home in 1955, have streets named for her
p81
aVHe publicly objected to the name of a 2004 documentary for infringing on the title of one of his books
p82
aVThe first verse of this book says, "There was a man in the land of Uz that feared God and eschewed evil"
p83
aVThis famed Sauk Indian had both a war and a pro sports team named for him
p84
aVThis consonant begins the last names of five presidents, more than any other letter
p85
aV50 years after a famous incident, this city got a new flag, seen here, featuring a mysterious dot in the sky:
p86
aVIn 1973 4 bank employees held hostage in this city ended up feeling grateful to their captors
p87
aVThis island nation is the only country in the world named for a biblical king
p88
aVThis sea that extends about 1,200 miles was referred to in ancient times as the Erythraean Sea
p89
aV2 of the 5 presidents buried west of the Mississippi River
p90
aVDiffering by one letter, the 2 words that mean job & time away from the job
p91
aVOne of two Cabinet department heads who have held their position for the entire Reagan administration thus far
p92
aVThis former British colony, which gained independence in 1960, is the most populous country in Africa
p93
aVJust days after the attack on Pearl Harbor, it became the first U.S. possession occupied by the Japanese
p94
aVHe was the first vice president to cast zero tiebreaking votes in his capacity as president of the Senate
p95
aVObjects that pass closer to the sun than Mercury have been named for this mythological figure
p96
aVAccording to the CIA, this foreign country has the highest military expenditures per capita
p97
aVIn 1913 this alloy was invented by Harry Brearley of Sheffield, England, a city known for its cutlery since before 1400
p98
aVA poor couple window-shopping a diamond bracelet at this store inspired the song "I Can't Give You Anything But Love"
p99
aVAfter being subdued by the Franks in the 700s, this people formed a kingdom at Pamplona in the 800s
p100
aVOf the 4 U.S. state capitals named after presidents, this is farthest north and east
p101
aVFounded in 1821, it was named for its delivery time, the last mail delivery of the day
p102
aVThis Russian-born author & scientist who died in 1992 said, "I do not fear computers.  I fear the lack of them"
p103
aVOne of the 3 years in which 3 different kings reigned
p104
aVJust over 4,000 square miles, it's the largest single island under the US flag
p105
aVOn this date Philadelphia partied with fireworks & music from a Hessian band captured 6 months earlier
p106
aVWith 7 years' service, this man who resigned in June 2004 had the longest tenure in his position in over 4 decades
p107
aVThey're the 2 men who served the U.S. as President representing the Union Party
p108
aVOn the throne since 1946, the king of this Asian country is the world's longest-serving living monarch
p109
aVThis brand's airtight seal, introduced in 1946, was patterned after the inverted rim of a paint can
p110
aVThe introductory verse to this 1908 song begins, "Katie Casey was baseball mad"
p111
aVThe only name shared by four consecutive kings of England
p112
aVToday, many who visit Santa Maria delle Grazie Church admit doing so because of this 2003 No. 1 bestseller
p113
aVThis boy introduced in a 1902 book flew away from his mother when he was 7 days old
p114
aVHe said, "I am the last president of the United States"
p115
aVForeign country in which the most American soldiers are stationed
p116
aVThe Arab-Israeli War that started on June 5, 1967 ended with a cease-fire on this date in Israel
p117
aV18th c. poem that says, "Forever cursed be this detested day, Which snatched my best, my favorite curl away!"
p118
aVIt was once believed that this river "originated in the Mountains of the Moon"
p119
aVLocated SE of Charlottesville, Virginia, it has 3 stories, an octagonal dome & 33 rooms of varying shapes
p120
aVThough he spent most of his life in Europe, he was governor of the Bahamas for most of World War II
p121
aVTo trek through its Khumbu Icefall, Lhotse Face & South Col, your team needs a $70,000 permit from Nepal's government
p122
aVIt's the room where you'll find the masterpiece that includes "The Flood" & "The Creation of Eve"
p123
aVThe exterior of the governor's mansion in Florida is modeled after the home of this president
p124
aVWilliam Blake called them "The Two Contrary States of the Human Soul" and wrote songs of them
p125
aVHired as a ship's cook, he led the mutiny aboard the Hispaniola
p126
aVBorn Edwin in 1930, this Apollo astronaut legally changed his name in 1982 to his popular nickname
p127
aVOf the 1st 7 presidents, only these 2 were not re-elected
p128
aV"The Pastor and His Parishioner" is Chapter 17 of this classic novel
p129
aVLaunched in 2004, a spacecraft named MESSENGER is on a mission to study this planet
p130
aVStriking soft chords on the piano, he says, "Like the painting of a sorrow; a face without a heart"
p131
aVTho not founded until 1791, this city has the most historic places listed in the National Register
p132
aVThis biblical figure's name comes from the Hebrew word meaning "to be drawn" from the water
p133
aVLaid to rest temporarily at Arlington in 1941, his remains were returned to Poland in 1992
p134
aVA member of this family has spoken at every Democratic National Convention since 1956
p135
aVThe next-to-last chapter of this novel is entitled "The Knitting Done"
p136
aV40 years after a famous incident, he was awarded a DFC, POW Medal & Natl. Defense Service Medal posthumously
p137
aVNamed for the outline it commonly produces, it affects about 40 million U.S. men
p138
aVBy weight, this element makes up more of the human body than all the others combined
p139
aVThis brand name comes from machines devised by Benjamin Holt to crawl over soft farmland
p140
aV(Hi, I'm John McCain.)  In presidential succession, the senator holding this position follows the VP & the Speaker of the House
p141
aVWith 5, this president had more attorneys general in his administration than any other president
p142
aVAlphabetically, the federal legal public holidays in the U.S. run from Christmas to this
p143
aVInnuendo is what a plaintiff must demonstrate in order to prove the commission of this
p144
aVThe state motto of Ohio, adopted in 1959, was ruled unconstitutional in April 2000 as it included this word
p145
aVThis film that originally hit the big screen in 1930 was re-released soon after the German invasion of Poland
p146
aV"Worth" magazine says with 1.7 million ranchland acres in 5 states, this mogul is the USA's largest private landowner
p147
aVUnder an act passed in 1958, they became the first two former presidents eligible for a pension
p148
aVIn 1993 it became the first state to adopt an official flavor, which, incidentally, comes from its state tree
p149
aVIn area, it's now the largest country whose boundaries are wholly within Europe
p150
aVKings Edward IV & Edward V, the future Henry VII & the corpse of Henry VI appear in the play named for him
p151
aVFrank Harris' 1908 novel "The Bomb" deals with this 1886 U.S. incident
p152
aVThis man who often criticized the government was named for the president elected in 1912, his birth year
p153
aVThe capital of Albania is named for this other world capital
p154
aVThese 2 writers of lavish prose, born in North Carolina & Virginia 30 years apart, have the same first & last name
p155
aV1 of 3 women who won the Pulitzer Prize for Drama in the 1980s
p156
aVThe two presidents whose fathers signed the Declaration of Independence
p157
aVThis word for a type of war is one of the few 5-letter words that can be made using only Roman numerals
p158
aVThis major North American city is built around the mountain it's named for
p159
aVHe was the only incumbent vice president to defeat a president in a presidential election
p160
aVIt's the more commonly used term for the practice of Chinese geomancy
p161
aVThe 2 island nations that are official members of the G-8 (Group of Eight)
p162
aVIn 2000 this writer, with more than 100 million copies of novels in print, had a new species of dinosaur named for him
p163
aVThe Greek expression meaning "philosophy (is) the guide of life" is abbreviated by these three Greek letters
p164
aVGenoa, Italy gave this state capital a 20' statue which was put in front of City Hall
p165
aVIt was the only state in the 1790 census to claim a slave population of zero
p166
aVHusband and wife who won Oscars almost 30 years apart, she in 1958, he in 1987
p167
aVThe remarkable elasticity of yew led to this new weapon that made history at a 1346 battle
p168
aVOnly member of the current court who has been elected to a public office
p169
aVThis country's authors have won more Nobel literature prizes than any other, including the U.S.
p170
aVThe bloodiest single day of fighting in the Civil War took place in this state
p171
aVBuilt in memory of a victim of this tragedy, Harvard's Widener Library was opened in 1915
p172
aVThe third Monday of January starting in 1986
p173
aVCalendar date with which the 20th century began
p174
aV"Grand Master Villiers de l'Isle d'Adam had" this made "by Turkish slaves in the castle of St. Angelo"
p175
aVIn 1900 Teddy Roosevelt wrote, "I have always been fond of the West African proverb:" this
p176
aVIt is the 2nd most spoken language in the world
p177
aV3 months after John Glenn, he became the second American to orbit the earth
p178
aVSince 1970, the only cabinet department not headed by a secretary
p179
aVOf the 5 continents symbolized by Olympic rings, only one never to hold Games
p180
aVNow independent, this island has been ruled by Phoenicians, Romans, Arabs, Normans, French, and British
p181
aV3 twentieth century presidents who were defeated when running to retain the office
p182
aVHe was alive for the Wright Brothers' historic flight & was John Glenn's Senate colleague when Glenn returned to space
p183
aVThe Murders in the Rue Morgue and The Mystery of Marie Roget are mentioned in the 1st paragraph of this 1845 story
p184
aVDutch for either "devil's whirlpool" or "spite the devil", Spuyten Duyvil Creek forms part of its northern border
p185
aVJames Wilson of Iowa, who headed this department for 16 years, served longer than any other cabinet officer
p186
aVHe wrote, "Praise to thee, my Lord, for all thy creatures, above all brother sun"
p187
aVPeople Magazine's 1989 & 1998 Sexiest Men Alive, they played father & son in a blockbuster 1989 film
p188
aVIn 1939 an Illinois sports official wrote "A little" of this alliterative phrase may "contribute to sanity"
p189
aVSince the Norman Conquest, this royal house has supplied the most rulers, beginning with Henry II
p190
aVCapt. Robert FitzRoy of this ship argued that its scientific discoveries supported the Bible
p191
aV19th century novelist Jose Rizal was a hero of this country's independence movement
p192
aVWith Napoleon III's support, a physiological chemistry lab was created for him at the Ecole Normale Superieure
p193
aVHe launched his lecturing career in 1866 with a talk later titled "Our Fellow Savages of the Sandwich Islands"
p194
aVDesigned locally & cast in Japan,  a peace & friendship bell was dedicated in this Tennessee city in 1996
p195
aVThe biography of this man on PBS' "American Masters" was subtitled "Submitted for Your Approval"
p196
aVAesculapius, Hygeia, Panacea & Apollo are all mentioned in the first line of this
p197
aVIt begins, "'To be born again,' sang Gibreel Farishta tumbling from the heavens, 'first you have to die'"
p198
aVAccording to McDonald's, it's the only country where their outlets do not sell beef hamburgers
p199
aVBorn in 43 B.C., his most famous work begins, "My intention is to tell of bodies changed to different forms"
p200
aVIt's the only state capital whose name has 3 sets of double letters
p201
aVDuring the American Revolution, in his last moments he said, "It will be but a momentary pang"
p202
aVThe French call him "Le Roi du Crazy"
p203
aVThe first African-American Best Actress nominee, her life was the subject of a 1999 HBO film
p204
aVFounded in the early '50s, in 1995 it moved its headquarters from Munich to Prague
p205
aVDue to police irregularities, this man's Arizona conviction was overturned by the U.S. Supreme Court in 1966
p206
aVTo allow people to communicate more quickly, on May 15, 1918, courtesy of the U.S. Army, this service began
p207
aV"Shouldn't the shining dots of the sky be as accessible as the black dots on the map of France?" the artist wrote of this work
p208
aVArtist who said, "On the floor I am more at ease, I feel nearer, more a part of the painting"
p209
aVThey're the 3 words found at the top of Mel Blanc's gravestone
p210
aVIn 1807 he wrote, "The distance from New York to Albany is 150 miles; I ran it up in thirty-two hours"
p211
aVThe name of this title character of a morality play has become a synonym for the average, ordinary person
p212
aVOn this day you can hear "Remember that you are dust and unto dust you shall return" ritually repeated
p213
aVIn the 19th c., selling stock you didn't yet own, hoping it would fall, was called selling this animal's skin
p214
aVArtist who released the 1991 double album "Who'll Buy My Memories:  The I.R.S. Tapes"
p215
aVHe built the Valley of the Fallen, his final resting place, just north of El Escorial
p216
aVGraders, gaugers, spikers & bolters built these
p217
aVAbraham Lincoln was the first U.S. president to wear a beard; this man was the second
p218
aVThis woman received the third-highest vote total of any candidate for all of the November 2004 elections
p219
aVChicago's Fire Academy was built in 1960 on the site where this family once lived
p220
aVThis 6-letter word can mean both a bright light above someone's head & a dark cloud above our heads
p221
aVPrincess Sophia of Greece gave up her right of succession to Greece's throne before marrying him in 1962
p222
aVHis grandson was the cinematographer of "Barbarella" & "The Spy Who Loved Me"
p223
aVShe's the first female track & field athlete to win medals in 5 different events at a single Olympics
p224
aVIn this language spoken by 120 million worldwide, all of the days of the week but one end with the same 3 letters
p225
aVThis common aquarium fish was named for a Trinidadian clergyman
p226
aVIn 2004 Brenda Christian became the first woman mayor of this island with a population of about 47
p227
aVIn 1930 the Chrysler Building surpassed this foreign structure by over 60 feet to become the world's tallest
p228
aVThis type of establishment gets its name from the Latin for "to restore"
p229
aVIn 1916, his assassins included a prince and a grand duke
p230
aVOn October 14, 1997 he re-created a feat he had performed exactly fifty years earlier
p231
aVApril 1 is the anniversary of the Battle of Five Forks, the last decisive battle of this war
p232
aVIn computerese this word from the Hindu faith means an icon of a user in virtual reality
p233
aVOne of two English kings since William The Conqueror who were never crowned
p234
aVThe team names of these 2 expansion clubs start with the same 3 letters; one might catch the other
p235
aVBased on a myth, this 1913 play became a 1938 movie, a 1956 stage musical & a 1964 movie musical
p236
aVBooks by this alumnus include 1957's "Nuclear Weapons and Foreign Policy" & 1994's "Diplomacy"
p237
aVA chemist in the 1920s coined this term after finding lavender oil not only hid the odor of his burnt hand but also healed it
p238
aVLawrence Walsh & Donald Smaltz have held this job created by 1978's Ethics in Government Act
p239
aVIts anniversary was honored with the following:
p240
aVShe was 6 years old & still known by the name Catalina when Columbus set sail for the New World
p241
aVHe's the only U.S. president to serve in the Senate after leaving the White House
p242
aV"If I were to dress as a woman, they would think of me as a woman... What would become of me?" is a line from this 1923 play
p243
aVIts full Spanish name originally meant "The Royal City of the Holy Faith of Saint Francis of Assisi"
p244
aVThis term for a sudden piece of good fortune literally refers to fruit blown to the ground
p245
aVPresident under whom the U.S. gave full recognition to Communist China
p246
aVAs part of 1997 changes to its industrial average group, Dow Jones replaced Woolworth with this retailer
p247
aVThis 17th century poetic follow-up begins, "I who ere while the happy garden sung, by one man's disobedience lost..."
p248
aVA 1997 episode of this series guest-starred Philip Michael Thomas & Tommy Chong
p249
aVIn 1959 the ad firm of Doyle Dane Bernbach began using the slogan "Ugly is only skin-deep" for this import model
p250
aVOf the 7, this continent has the greatest number of independent countries
p251
aVThis office supply product caught on in the Depression because it made worn & tattered items last longer
p252
aVAt this man's death in 1997, Jacques Chirac called him probably the best known Frenchman in the world
p253
aVWritten in 1517, the 62nd of these is "The true treasure of the church is the holy gospel of... God"
p254
aVThis president arranged the first film showing in the White House when he had "The Birth of a Nation" screened there
p255
aVThe phrase "Flower Power" was coined by this poet in the 1960s
p256
aVHe died in Topeka October 12, 1987, a month after his 100th birthday
p257
aVThe towns of Vierville-sur-Mer & Colleville-sur-Mer entered history with this 2-word area named for a U.S. city
p258
aVThe appearance of this famous site gave England its old name of Albion
p259
aVIn 1980 Marva Collins declined this Cabinet post in favor of keeping her regular job
p260
aVBooks by this man include "North West Passage" (1908) & "The South Pole" (1912)
p261
aVDr. Seuss wrote this book to win a bet that he couldn't write a book using only 50 different words
p262
aVTheir grandfather had a No. 1 record in 1935; their father, No. 1's in 1958 & 1961; and they hit No. 1 in 1990
p263
aVIt moved its HQ from Savannah to Wash. D.C. in 1913, & in 1917 began making each First Lady honorary pres.
p264
aVThe Welch's Company has its corporate headquarters in this Mass. town
p265
aVSentinels at the tomb walk exactly this many steps at a time before they stop & turn
p266
aVIt's the colorful 2-word term used to describe the motion of galaxies coming toward us, like Andromeda is
p267
aVAs a foe of the Spanish, he's been called "The Queen's Pirate" & a "Gran Luterano"
p268
aVIn 1849 Americans traveling to the California gold fields via boat popularized this hat
p269
aVBorn in 1980, this world champion figure skater was named for a Beatles hit
p270
aVIt sided with Sparta in the Peloponnesian War, & the Bible includes 2 letters to its Christians
p271
aVIn works by Lewis Carroll, this word means "four in the afternoon; the time when you begin broiling things for dinner"
p272
aVWhen his tomb was opened in 1102, a fragrance filled the air, & his body was perfectly preserved
p273
aVThis future foreign prime minister attended Milwaukee Teachers Training College in 1916 & '17
p274
aV1 of 2 women who made the Top 10 on Forbes' list of the highest-earning entertainers of 1989-90
p275
aVThis man received the first & only New York City ticker-tape parade ever given to a classical musician
p276
aV1 of the 2 women from the United States who have won the Nobel Prize for Literature
p277
aVThe 2 Roman emperors during the time that Jesus Christ walked the Earth
p278
aVA top member of the Reagan Cabinet, he was also Labor Secretary & Treasury Secretary under Richard Nixon
p279
aVIn 1931 he narrated "The Mystery of Life", a full-length film about evolution
p280
aVThis real man inspired a 1719 novel character & a poem that says, "I am monarch of all I survey"
p281
aVIn 1942 Aung San, commander of this country's Independence Army, married nurse Khin Kyi
p282
aVIn population, it's the largest country that's not a member of the United Nations
p283
aVCEOs must personally certify their corporate books following a July 2002 law named for these 2 men
p284
aVIt was first published between 1861 and 1865; it was revived in 1918; stopped in 1919, and revived again in 1942
p285
aVIn a September 18, 1978 speech, he said, "Blessed are the peacemakers"
p286
aVIn 1790 this Midwest city was named for a society that had been named for a Roman citizen-soldier
p287
aVMuch in the news of the world at the end of June 2004, it's the only English word to contain "GNT" consecutively
p288
aVFrom the Greek, the name of this movement of the early Christian era means that its members had knowledge of God
p289
aVThis character in an 1838 novel was based on Ikey Solomon, a British thief & fence
p290
aVHe commanded the forces that rescued the survivors of the infamous Black Hole of Calcutta in 1756
p291
aVDisplayed in a new case in September 1997, it's the centerpiece of the Harry Winston Gallery
p292
aVSome versions of this painting based on a Bible verse show William Penn making a treaty with the Indians in the background
p293
aVLast Communist party chief of the U.S.S.R. to leave office without dying
p294
aVCompass directions of the Wicked Witches killed in "The Wizard of Oz"
p295
aVIt's from the Greek for "a place for watching"
p296
aVOver 1/2 of Fortune 500 and 42% of all N.Y. Stock Exchange companies are incorporated in this state
p297
aVCapital of the ancient Roman province of Galatia, it became a modern national capital in 1923
p298
aVBy a 1782 resolution, they represent valor; purity & innocence; and vigilance, justice & perseverance
p299
aVIt refers to a mythical bird that calmed waves, or to past happy "days"; spelled differently, it's a sleeping pill
p300
aVIts original meaning was a resident of a certain wealthy city; now it means one who indulges in luxury
p301
aVThis former U.N. ambassador is a co-chairman of the host city's committee for the 1996 Olympic Games
p302
aVOne-word title of the Verdi opera set in Windsor, England in the 15th century
p303
aVAfter 285 years, in 1945 this British organization inducted its first women, including Kathleen Lonsdale, seen here
p304
aVThe name of this character, introduced in 1894, is from the Hindi for "bear"
p305
aVHenry Moore's sculpture, "Nuclear Energy", can be seen on the campus of this university
p306
aVOn March 24, 1994 this store held a breakfast to announce the new Truman Capote Literary Trust
p307
aVWhen Grandma Moses was born, this man was president; at her death, JFK was president
p308
aVThis Mediterranean island shares its name with President Garfield's nickname for his wife
p309
aVBorn of Norwegian descent in 1916, he was given the first name of a famous Norwegian of the time
p310
aVNow meaning nearly identical, these 2 names were applied to rivals Handel & Bononcini in a 1720s British verse
p311
aVSongs in this 1956 show include "Oh, Happy We", "You Were Dead, You Know" & "The Best Of All Possible Worlds"
p312
aVNobel laureate Rabindranath Tagore wrote the national anthems of these 2 countries
p313
aVOf the 10 most populous U.S. cities, the one that shares its name with a city mentioned in Revelation
p314
aVThe only VP to become president not immediately after his vice presidential term
p315
aVJohn Alden was the last surviving signer of this
p316
aVThis annual event was co-created in 1993 by Marie C. Wilson, mother of 5 & president of the National Ms. Foundation
p317
aVWhat the ancient Greek writer Theseus called a "monokeros", we call this
p318
aVThis 5-word rule or maxim has been attributed to both H. Gordon Selfridge & John Wanamaker
p319
aVSome of the periods of time called this occurred in 304 A.D. (4 years), 1314 (2 years), 1958 (19 days), 1963 & 2005
p320
aVThis state, besides having the first, also has the most nuclear reactors
p321
aVGiven to Washington by Lafayette, one of the keys to this is on display at Mount Vernon
p322
aV"The Mute" was the working title of this 1940 novel by a female author
p323
aVWashington was the one who added these 4 words to the presidential oath; they're not in the Constitution
p324
aVThe 2 "oo" 4-letter words in the poem inscribed in the base of the Statue of Liberty
p325
aVCiting John Winthrop, who said, "The eyes of all people are on us", Ronald Reagan liked to compare the U.S. to this
p326
aVThis Hollywood legend who died January 21, 1959 supported placing monuments that have since brought legal challenges
p327
aVThese names of 2 original Mercury astronauts, who orbited Earth in May 1962 & May 1963, are also occupations
p328
aVHe appears in 3 of Shakespeare's plays & his death is reported in "King Henry V"
p329
aVSince the breakup of the Soviet Union, this is the largest country in area in the world
p330
aVHe served as vice president for the shortest length of time: one month
p331
aVIts name is from the Greek for "to bind", which in turn may come from the Egyptian shesep-ankh, "living image"
p332
aVThis automaker's trademark symbolizes the 3 places where its engines were used: land, air & water
p333
aVThis 20th century opera was inspired by Hieronymus Bosch's painting "The Adoration of the Magi"
p334
aVThe Latin name of this waterway is Fretum Herculeum
p335
aVThe mammal that holds the record for the longest lifespan
p336
aVAdventurous 26th president, he was 1st to ride in an automobile & an airplane
p337
aVN.Y. financier Al Grimaldi is next in line for throne of this Mediterranean principality
p338
aVIt carries more water than the longest rivers in Asia, Africa & No. America combined
p339
aVIn 2001 the zinc industry was up in arms over Rep. Jim Kolbe's bill calling for the phasing out of these
p340
aVSophocles, Euripides & Eugene O'Neill all wrote plays with this woman's name in their titles
p341
aVOnly 1 of 9 planets not named for a Greek or Roman mythological figure
p342
aVAutomaker that introduced the alternator, power steering & electric ignition
p343
aVIn 1999 Britain replaced Latin legal terms with English ones; "witness summons" replaced this word
p344
aVCountry that manufactures the most cars per year
p345
aVDecade the last amendment to the Constitution was ratified in
p346
aVThis famous man was the grandfather of the current prime minister of India
p347
aVChauffeur Alf Bicknell was the inspiration for this 1965 song
p348
aVWhen this department was established in 1849, it was called the Home Department
p349
aVCity that boasts the tallest U.S. monument, completed in 1965
p350
aVThe only day of the week named for a Roman god
p351
aVThe Soviet army was welcome in this capital in May of '45 but unwelcome in August '68
p352
aVPresident elected to 2nd term with 523 electoral votes, the greatest number in any election
p353
aVBarrymore, Rathbone, Roger Moore & Larry Hagman are among 61 actors to play this character
p354
aVIt's the election year the campaign slogans "The Moose Is Loose" & "Ready for Teddy Again" were used
p355
aVIt was built originally on the Whitehall site of a medieval palace used to house visiting Scottish kings
p356
aVIn 1804 this Caribbean country became 1st black nation to gain freedom from European colonial rule
p357
aVQueen of France 1559-60; Catholic Europe considered her the rightful queen of England
p358
aVThe 2 states on both sides of the Mississippi
p359
aVArrested for voting in 1872 election, she died 14 years before the 19th Amendment
p360
aVCountry whose flag includes pictures of the British & Dutch flags
p361
aVA juvenile edition of this 1961 best seller was called "The Great Adventure of Michelangelo"
p362
aVAfter a demonstration of this, the April 8, 1927 New York Times said, "Commercial use in doubt"
p363
aVOpened in 1937, it got its name in response to the George Washington Bridge, north of it
p364
aVHe's the only athlete in history to play in both the Super Bowl & the World Series
p365
aVAppropriate astrological sign shared by Britain's Princesses Anne & Margaret
p366
aVShe abducted Lancelot when he was a baby & kept him on an island
p367
aVHis early play "Ivanov" opens with a man carrying a gun & yes, a gun does go off by the end
p368
aVSet in the 1870s, it ran from 1955 to 1975
p369
aVSet on Christmas Eve, it begins "One dollar and 87 cents.  That was all.  And 60 cents of it was in pennies."
p370
aVHe's won 3 Pulitzer Prizes for drama--in 1967, 1975 & 1994
p371
aVThis Republican was the first V.P. to succeed to the presidency and then win the office by election
p372
aVThe only native Californian to win the Nobel Prize for Literature
p373
aVA corrections museum in Trenton, New Jersey contains the chair in which he was executed in 1936
p374
aVOn Dec. 13, 2000 he said, "While I strongly disagree with the court's decision, I accept it"
p375
aVIn 1934 in Chicago, soon before his death, he had painful plastic surgery that left him looking pretty much the same
p376
aVMusician Ray Charles raised money for people afflicted by this, saying, "To me, it's the worst thing in the world"
p377
aVThe 2 "High" films in which Grace Kelly starred
p378
aVOne of its official license plates bears the motto "Taxation without Representation"
p379
aVThe last time there were no living ex-presidents was when this man was president
p380
aVHe was the first Republican vice president
p381
aVDr. Henry Van Dyke Carter provided 363 drawings for this work first published in 1858
p382
aVThe 1939 event we just saw came out of a concert originally to be sponsored at DAR Constitution Hall by this university
p383
aVHe's the patron saint of the hometown of Shakespeare's shrew
p384
aVThis type of roadside establishment got its name & original design from a Pullman product
p385
aVIn an August 1989 protest, a 2-million-person human chain stretched from Tallinn to Riga to this city
p386
aVOf the 4 states that border Lake Michigan, the one whose name is not derived from a Native American word
p387
aVIn 1938, at age 25, she became the youngest person made a Knight First Class of the Order of St. Olav
p388
aVThe last president who did not serve in the armed forces
p389
aVWith over 35,000 miles, this state has the longest highway system in the U.S.
p390
aVIn 1978, Congress restored U.S. citizenship to this man seen here
p391
aVTired of his fragile wares being smashed in transit, this man born in 1730 advocated British turnpike building
p392
aVHe served as Sec'y of H.E.W., Sec'y of Defense & Att'y General, all in the same year--1973
p393
aVThis women's organization founded in 1890 was chartered by Congress in 1896
p394
aVThis writer was born in Germantown, Penn. on Nov. 29, 1832, the second of 4 daughters
p395
aVLast name of the last man to sit in power on the Peacock Throne
p396
aVThis Catalonian city, once the capital of the Visigoths, may be named for a Carthaginian family
p397
aVOn March 10, 1996, this woman performed a song on the balcony of Buenos Aires' presidential palace
p398
aVThe official insignia of this profession includes a serpent on a staff, a Greek delta & 32 leaves
p399
aVAnimal species that's the subject of the longest consecutive study of any group of wild animals, 40 years
p400
aVOf the U.S. states with active volcanos, this state is farthest south
p401
aVIn 2001, she produced & hosted the Travel Channel's "Secrets of San Simeon"
p402
aVThis 2-word city is named for the founders' wives (they had the same name) & the natural groves found there
p403
aVIn 1914 his brother's remains were moved from Holland to Auvers, France & buried beside him
p404
aVLinda Collins's tetanus antitoxin allergy led her parents to found this emergency information service
p405
aVThe first name of this man born February 15, 1564 was derived from his parents' surname, a common Tuscan habit at that time
p406
aVD.H. Lawrence called him "an adventurer into the vaults and...horrible underground passages of the human soul"
p407
aVHe's the only president to have held 2 different cabinet posts: Secretary of State & Secretary of War
p408
aVThough he was already emperor of one country, Franz Joseph was crowned in this city June 8, 1867
p409
aVThe "T" in TASS, an agency founded in the Soviet Union in 1925, stands for this
p410
aV2 of the 4 U.S. states with a population density greater than 500 people per square mile
p411
aVLast name of the first father & son to be awarded medals of honor, for service in the Civil War & WWII respectively
p412
aV2 of the 3 state capitals lying on the Missouri River
p413
aVIn 1956 she published "Venice Observed" & her brother Kevin starred in "Invasion of the Body Snatchers"
p414
aVAt 39 he was the youngest man to take the office of vice president
p415
aVIn Act II of this musical, an election victory is announced "on the balcony of the Casa Rosada"
p416
aVOriginally this legendary place name referred to a ruler near Bogota who dusted his body with gold
p417
aVThe states admitted to the Union in the 20th century were Alaska, Hawaii & these 3
p418
aVIn a 1964 film, he played 3 characters but received only one nomination for Best Actor
p419
aVOf the 15 expulsions of senators in the Senate's 215-year history, 11 took place in this year
p420
aVAt a May 1995 auction, a painting by her sold for $3.2 million, barely topping one by her husband
p421
aVSky & Telescope magazine's contest to replace this term for a single event got 13,000 entries, but chose none
p422
aVIn 1543 he wrote, "Finally we shall place the sun himself at the center of the universe"
p423
aVThe Victoria Cross is made from metal taken from enemy guns captured in this war
p424
aVThis company established its first village in 1950 in Alcudia on the island of Majorca
p425
aVNow in his job over 17 years, he's the longest-serving pres. appointee other than Supreme Court members
p426
aVIn his 1929 film "Die Frau im Mond", or "Woman in the Moon", he originated the rocket countdown
p427
aVThis word comes from a Greek phrase meaning "circle of animals"
p428
aVMoving west from Canada, the next 3 countries through which the Arctic Circle passes
p429
aVApsley House, the London home of this historic duke, boasts an 11' 4" nude statue of Napoleon
p430
aVIn 1960 European journalists gave her the nickname "La Gazzella"
p431
aVThe title of a Sean O'Casey play refers to these symbols on the flag of the Irish Citizen Army
p432
aVThis expression comes from a 1956 novel about Frank Skeffington's final run for mayor
p433
aVWith over 20,000 stores worldwide, it began trading on the NYSE in July 2000 under the symbol SE
p434
aVOn July 20, 1999 she gave birth to her fourth child, Princess Alexandra of Hanover
p435
aVAlso known as New Sarum, this city famous for its cathedral is just a stone's throw from Stonehenge
p436
aVRobert Jackson, the only justice to take a formal leave of absence, went to be a prosecutor in this foreign city
p437
aV1 of the top 10 companies that operated food services in 1964, in 1994 its lunch counters ranked No. 264
p438
aV2 of the 3 countries classified as extending across 2 continents
p439
aVRejected earlier in its bid for statehood, it finally entered the Union in 1876
p440
aVThe new $92 million Rock and Roll Hall of Fame stands on the shores of this lake
p441
aVIn 1986 the Texas Department of Transportation began using this 4-word slogan as part of a campaign to prevent litter
p442
aVOn Nov. 23, 1973 Yvonne Braithwaite Burke became the first member of Congress to do this while in office
p443
aVHe was nominated for Best Director twice in the same year, the first so honored since Michael Curtiz for 1938
p444
aVIn the last 400 years, over 2/3 of all the deaths caused by volcanoes occurred in what is now this nation
p445
aVThis 1952 classic contains the line "No one was with her when she died"
p446
aVIt's the only U.S. state that touches 2 oceans
p447
aVSelling over 12 million copies, this singer's 1999 album is the bestselling album by a teenage solo artist
p448
aVTo have taken the 1st modern IQ test in 1905 you had to understand this language
p449
aVHe called himself "the man who introduced the glass box and then, 50 years later, broke it"
p450
aVIn Webster's, it means either a soldier using a certain muzzle-loading weapon, or a boon companion
p451
aVIn 1908 Hermann Ebbinghaus said this field "has a long past, but only a short history"
p452
aVIt's the roughly 70-minute work that includes the sung words "Alle menschen werden bruder"
p453
aVThe promotional slogan of this territory is "Where America's Day Begins"
p454
aVThe "Polizei Pistole Kurz" model was often used very effectively by this literary character introduced in 1953
p455
aVSylvester IV & Calixtus III are 2 of the nearly 40 men now placed on the list of these
p456
aVThis actor who turned down the role of Dirty Harry played 142 leading roles, a Guinness record
p457
aVScientists added an extra one of these to December 31, 1998, giving it 86,401; we hope you made good use of it
p458
aVUnlike today, 75 years ago you could walk unannounced into this now 132-room home & shake its occupant's hand
p459
aVWith a catalog of 28 million items including books, CDs & audiobooks, it's the world's largest online shop
p460
aVThe single greatest source of water power in the U.S. is on this river
p461
aVHe said, "I saw a fleet of fishing boats, ...flew down...& yelled at them, asking if I was on the right road to Ireland"
p462
aVMore Congressional Medal of Honor winners have come from this war than any other
p463
aVThis Ford with a name from Native American myth was the first model to be Motor Trend Car of the Year
p464
aV"Land Of Two Rivers" is the anthem of this country whose history goes back thousands of years
p465
aVThe front of the state seal of Texas has 1 star & the back of the seal has 6 of these
p466
aVThis word for a close friend or an old chum comes from the Greek word for time
p467
aV2 words having to do with parenthood  that are anagrams of "Parental"
p468
aVThis city didn't exist at the time of the Trojan War so Paris couldn't have abducted Helen from there
p469
aVIn 1529 this Spaniard was made Marques del Valle de Oaxaca
p470
aVThe woman with the most quotes in the new edition of Bartlett's Familiar Quotations is this American
p471
aVThe last full-length cartoon feature Walt Disney supervised personally, it was set in India
p472
aVHe was born in Connecticut in 1800 & hanged for treason in Virginia in 1859
p473
aVHe died at age 28,  just 5 years after his Civil War novel was published
p474
aVIf Prince Charles keeps his name when he becomes king, this number will follow it
p475
aVHe first appeared as the title character in the 1630 drama "The Seducer of Seville"
p476
aV2 of the 3 countries which today share the region of ancient Macedonia
p477
aVHe was the last man holding the office of gov. when elected vice president of the U.S.
p478
aVSlated for demolition, it held 2 madmen, 4 forgers & a nobleman when the mob came for its gunpowder
p479
aVTho Shakespeare wrote many plays about kings, she is the only title character who is a queen
p480
aVIn April 1775 Gen. J. Warren made him an official messenger of the Committee of Safety
p481
aVIn 1910 it could be seen with the naked eye; in 1911 a telescope was necessary; by 1912 it was gone
p482
aVChapter 15 of this 1881 novel is entitled "Tom as King"
p483
aVCrassus, Julius Caesar & this man formed the 1st Triumvirate
p484
aV"No matter how hopeless, no matter how far, to fight for the right without question" is from this show
p485
aVThis man resigned his Senate seat January 3, 1989
p486
aVAfter Rhode Island & Delaware, it's the next smallest state in area
p487
aVBefore Prince Andrew, he was the last Duke of York
p488
aV3 of the 5 founding members of OPEC
p489
aVCity that was the seat of government of the viceroyalty of New Spain
p490
aVHe is introduced as "The triple pillar of the world transformed into a strumpet's fool"
p491
aVHe published a history of Virginia & New England in 1624, after escaping from Turks, Indians & pirates
p492
aV2 of the 4 countries that have had prime ministers who were father & daughter
p493
aVThe only peace prize awarded posthumously went to this man in 1961
p494
aVThe poem that includes the line:  "Leave no black plume as a token of that lie thy soul hath spoken!"
p495
aVCivilization that produced the first known calendar with 365 days
p496
aVBetween 1803 & 1848, he served as a U.S. senator, Sec. of State, president & congressman, in that order
p497
aVCity where Goethe & Nietzsche died & a republic & a breed of dog were born
p498
aVThe northernmost country in Africa, it's much smaller than the countries that border it
p499
aVThis president was the last surviving signer of the U.S. Constitution
p500
aVNumber of Canadian provinces that border the Great Lakes
p501
aVThe world's most populous democracy
p502
aVThis character studied medicine, "knowing it would be useful in long voyages"
p503
aVThis man who became a ruler in April 2005 is the great-nephew of the 1926 winner of the Pulitzer Prize for Drama
p504
aVThe only state that's home to 2 Ivy League schools
p505
aVA group chaired by her produced a system that President Bush says now needs "wise and effective reform"
p506
aVHe became a nat'l hero when he led the Spanish Foreign Legion against Moroccan rebels in the 1920s
p507
aVThis actor won a 1952 Tony and a 1956 Oscar for playing the same ruler
p508
aVIn 1950 Pius XII was Pontifex Maximus; exactly 2,000 years earlier, this man held a title of the same name
p509
aVThe phrase "How I want a drink, alcoholic of course" is often used to help memorize this
p510
aVCountry whose basic monetary unit is the Balboa
p511
aVHis great-granddad wrote the best-seller "White Rose of Memphis", a city 40 miles north of the county in which he was raised
p512
aVThe name of this channel can be traced back to a movie theater that opened in 1905 in McKeesport, Pa.
p513
aVIt was originally painted as the centerpiece for the Spanish Government Pavillion at the 1937 Paris World's Fair
p514
aVThe 2 major literary monthlies founded in the 1850s that survive today
p515
aVAt a military funeral, the American flag is folded this many times to resemble a Revolutionary War soldier's hat
p516
aVWord meaning "immeasurably small"; its first 8 letters are a word meaning "immeasurably great"
p517
aVEquatorial Guinea is the only African nation whose offical language is this
p518
aVThis company was incorporated in 1946 as Tokyo Telecommunications Engineering Corporation
p519
aVSomeone chatting about preserving natural resources is these 2 similar words, anagrams of each other
p520
aVHer 1st husband, Alexandre de Beauharnais, fought in both the American & French Revolutions
p521
aVThis country's national anthem is "William of Nassau"
p522
aVThis city was named for a first century Roman citizen & missionary
p523
aVOn May 18, 1980 its height was reduced from 9,677 feet to 8,364 feet
p524
aVHis most famous play was first produced in 1895, the year he was sent to jail, & he never wrote another
p525
aVThe only U.S. state that borders 4 Great Lakes
p526
aVIn 2004 a top entry in a 6,000 mile albatross race was sponsored by a descendant of this man who died in 1834
p527
aVOnce a professor of astronomy, he designed the Royal Observatory at Greenwich
p528
aVFor the first time in its history, the Nobel Prize for Literature was not awarded in this year
p529
aVRobert Shaw, Richard Burton & Charles Laughton all played this ruler on film
p530
aVThe 2 astronauts who went on to become U.S. Senators
p531
aVHe defended civil rights as a representative from Massachusetts' 11th District from 1895 to 1901
p532
aVWhen Einstein won the 1921 Nobel Prize in physics, he was a naturalized citizen of this country
p533
aVAt the time of his 1902 nomination to the Supreme Court, he was Chief Justice of Massachusetts
p534
aVIronically, this 1953 science fiction book began appearing in a censored version in 1967
p535
aVMerlin the Magician cast a spell putting this title character to sleep for 1,300 years
p536
aVOn August 6 & 7, 1961, Gherman Titov did this 17 times; the previous record was one
p537
aVThe 14th Earl of this was prime minister in 1852; the 12th Earl of this had a race named for him
p538
aVIn 1889 a daily New York news summary called the "Customers' Afternoon Letter" became this publication
p539
aVIt's the southernmost independent country in the world
p540
aVA Gospel & a book of the Old Testament each start with these same 3 words
p541
aVWhile a regular on Major Bowes' radio show, she said, "I'm 7 years old & I can sing 23 arias."
p542
aVHe was born in India; his father worked for the British government & he was nicknamed for a Kipling character
p543
aVCommander Lloyd M. Bucher was the last captain of this U.S. ship
p544
aVIn 1999 the wreck of this ship, known for its historic 1912 rescue effort, was discovered 120 miles off England
p545
aVFounded in 1758, it's named for a British prime minister who was a noted defender of the American Colonists
p546
aVThis one-word name is derived from the fact that the character used to sit among the ashes
p547
aV1904 British play that includes the line "To die will be an awfully big adventure"
p548
aVChapter 1 of this book describes "a cyclone cellar, where the family could go in case one of those\u2026 whirlwinds arose"
p549
aVThe 2 Best Picture nominees for 1983 that featured astronaut characters
p550
aVHis fascination with clowns & make-believe may have begun when he ran off with Pierino's Circus as a child
p551
aVOnce known as fairy floss in the U.S., it's "papa's beard" in France & "sugar wool" in Germany
p552
aVFrederick, Maryland was named for the 6th Baron this
p553
aVIn his dictionary, Samuel Johnson self-effacingly defined this job title in part as "a harmless drudge"
p554
aVThis word comes from the Greek words for "light" & "writing"
p555
aVIn 1967 this former teacher published a memoir entitled "Center of the Storm"
p556
aVOne of its title studies is Sen. Edmund Ross' 1868 vote against convicting President Andrew Johnson
p557
aVNumber of males who served as British PM in the 1990s plus Oscars won by Tom Hanks plus protons in a helium nucleus
p558
aVIt was the first war covered by both newspaper reporters & photographers
p559
aVAt 81, this Pennsylvanian was the oldest delegate at the 1787 Constitutional Convention
p560
aVIt's Europe's second-largest island
p561
aVIn old philosophy this 12-letter word referred to a fifth substance, superior to earth, air, fire or water
p562
aVHe was the only vice president to be elected to, & serve, 2 full terms as president
p563
aVOf nations entirely within Europe, it was the largest in area in 1571 & 1771, not on the map in 1871, & No. 6 in 1971
p564
aVDuring the 1920s the Progressive Party was headquartered in this capital
p565
aVHe was nominated for Best Actor 5 times in the 1950s, the most for any man in one decade
p566
aVThis French tennis player born in 1905 is nicknamed "The Crocodile"
p567
aV(Kelly of the Clue Crew reads the clue from a mail sorting counter at the post office.)  In the '60s, to popularize a new system, the Post Office used ads of Ethel Merman singing this Disney movie tune
p568
aVThe next year that will be written in only 4 Roman numerals
p569
aVShe began her company in 1946 with a skin cream her chemist uncle developed & pioneered the concept of "gift with purchase"
p570
aVThe death of Denise Darvall in a traffic accident permitted this historic December 3, 1967 event
p571
aVHanged in an 1837 novel, he so angered some Londoners that his creator toned him down in future editions
p572
aVHis name means "son of the young lion" in Hebrew
p573
aVIn Spanish-speaking countries, this Disney film is known as "La Sirenita"
p574
aVIt was the first TV series to win the Hugo Award for best dramatic presentation
p575
aVThis organization pledges it will strive for "clearer thinking... greater loyalty... larger service, and... better living" in that order
p576
aVOn March 18, 1912 he wrote in his diary, "My right foot has gone, nearly all the toes..."
p577
aVElected in 1916, she was the subject of a 1995 biography called "Bright Star in the Big Sky"
p578
aVThis state capital is on the site of a cross erected by Capt. Christopher Newport May 24, 1607
p579
aVIn 1776 she wrote, "Whilst you are... emancipating all nations, you insist upon retaining an absolute power over wives"
p580
aVThe best American League lefthanded pitcher 1916-18, he was moved to left field in 1919
p581
aVHome to the oldest cathedral & the oldest university in the Americas, this capital was founded in 1496
p582
aVIn area, it's the largest country in South America entirely north of the Equator
p583
aVThis 1895 novel is subtitled "An Invention"
p584
aVNever president, he was the youngest man ever to receive the Republican presidential nomination
p585
aVSome attribute these 1692 proceedings to the psychotic effects of ergot poisoning
p586
aVThis outlaw's father, a minister, gave him his first & middle names after an 18th century English clergyman
p587
aVWith 930 million people, it's the world's second-most populous country & its most populous democracy
p588
aVThis cliche about superfluousness is derived from criticism of a 2nd coronation in Shakespeare's "King John"
p589
aVAT&T says more collect calls are made on this holiday than on any other day of the year
p590
aVCalling him a Revolutionary, in 2000 Fidel Castro dedicated a statue of this man on the 20th anniversary of his murder
p591
aVThe largest single accumulation of gold known, about $90 billion from several countries, is found in this U.S. state
p592
aVThe 2 men whose presidencies each began & ended during one calendar year
p593
aVHis love of music led him to found a school of music at the University of Rochester, N.Y.
p594
aVHe declined the offer to lead a country & once said, "Politics is for the present... an equation is... for eternity"
p595
aVThis continent has the lowest high point & the highest low point, less than a 7,500' difference
p596
aVCommon household product named for a 19th century surgical pioneer
p597
aV5 state capitals, all of them on or west of the Mississippi, begin with these 2 letters
p598
aVIt's the largest landlocked country in the world
p599
aVLaunched in 2004, Billboard's first Top 20 chart for these included "My Boo", the "Halloween" theme & "Ice Ice Baby"
p600
aVThis city was named for a Byzantine church
p601
aVHis mother, Louise, said, "I do not want my son to be president... his is a judicial mind and he loves the law"
p602
aVIke defined this as "All of the usable surface.  The extremes, right and left, are in the gutters."
p603
aV2 of the 3 Republicans elected vice president twice
p604
aVA Phillips 66 in Cloquet, Minnesota is the only functioning gas station designed by this man
p605
aV"America's Favorite Food", a book about this company, contains 12 pages of Andy Warhol's art
p606
aVSpeaking at his alma mater, he urged graduates to be voracious readers, donate to worthy causes & stay in Maine
p607
aVThis British scientist titled her 1984 autobiography "Disclosing The Past"
p608
aVBilly Wilder & this actor-director are tied for the most Best Original Screenplay nominations:  12 apiece
p609
aVIn 1812 he became a disciple & friend of social philosopher William Godwin, later his father-in-law
p610
aVHe also created a 2-letter land called Ix
p611
aVThis word meaning "complete range" comes from the 3rd Greek letter, which used to be the low end of the musical scale
p612
aVPizarro founded this city whose present name is from a Quechua word meaning "talker"
p613
aVThe knife he used to stab Major Henry Rathbone is in a Washington, D.C. museum
p614
aVBenjamin Franklin was born in this city in 1706
p615
aVIn 1520 he wrote Pope Leo X, "Let no person imagine that I will recant"
p616
aV"He is all pine and I am apple orchard.  My apple trees will never get across and eat the cones under his pines"
p617
aVArrested twice at the 1968 convention for demonstrating, he was a delegate to the 1996 convention
p618
aVIn 1996, 7 years after giving up law, he returned to a Mississippi courtroom & won a case for an old client
p619
aVThis 1972 book, a bestseller in 2005, begins, "We were somewhere around Barstow... when the drugs began to take hold"
p620
aVThis word is from the Old English for "The farmer who lives near you"
p621
aVIn 1994, after a 20-year absence, this country's delegation was allowed to be seated in the U.N. General Assembly
p622
aVOf the world's 4 largest countries in area, it has smallest percentage of farmland
p623
aVIn 2005, the 700th anniversary of his execution, his 5-foot sword was displayed in N.Y. as part of a Tartan Day celebration
p624
aVThis state capital rose from the ruins of a Hohokam Indian settlement
p625
aVLast year in which we went an entire calendar year without a vice president in office
p626
aVThis company's namesake founder, the son of German immigrants, sold pickles to Pittsburgh grocers
p627
aV4 single biographies & 23 pairs of biographies make up this classical work
p628
aVHis brother Jonathan lost his life in 1976 leading the raid on Entebbe
p629
aVThe Micmac Indians called it Abegweit, which means "cradled on the waves"
p630
aVDating from the second half of the 15th century, the Tudor rose has petals of these 2 colors
p631
aVFull & correct title of the post held by the person seen here:  (William Rehnquist)
p632
aVThe Jose Marti Monument is a 450-foot tower in the Plaza de la Revolucion in this capital
p633
aVIn a famous incident, it's the school at which William Webb Ellis disregarded the rules in 1823
p634
aVBefore achieving fame in Hollywood, he was a cosmetician to the Russian royal court
p635
aVThe last full 2005 Micropedia article about a person is on the Russian-born man famed as an inventor of this in the 1920s
p636
aVWith 6, this 1981 German film holds the record for most Oscar nominations for a foreign-language film
p637
aV10 million people live in this country that is almost bisected by the second-longest river in Europe
p638
aVNicknamed for the sport their children play, they were part of the swing vote in 1996
p639
aVName missing from this list: Webber, Begley, Marshall, Warden, Balsam, Fiedler, Klugman, Binns, Sweeney, Voskovec & Cobb
p640
aVThe London Theatre's equivalent of Broadway's Tony Awards are named for him
p641
aVFrom the Latin for "year" & "turn", it's literally "The turn of a year"
p642
aVNow the fourth largest in area, it's the largest state formed primarily from the Louisiana Purchase
p643
a.